; Function Attrs: nounwind uwtable
define hidden void @_glfwRestoreVideoModeX11(ptr noundef captures(none) %0) local_unnamed_addr #0 {
  %2 = load i32, ptr getelementptr inbounds nuw (i8, ptr @_glfw, i64 142064), align 8, !tbaa !3
  %3 = icmp eq i32 %2, 0
  %4 = load i32, ptr getelementptr inbounds nuw (i8, ptr @_glfw, i64 142100), align 4
  %5 = icmp ne i32 %4, 0
  %or.cond = select i1 %3, i1 true, i1 %5
  br i1 %or.cond, label %37, label %6

6:                                                ; preds = %1
  %7 = getelementptr inbounds nuw i8, ptr %0, i64 304
  %8 = load i64, ptr %7, align 8, !tbaa !171
  %9 = icmp eq i64 %8, 0
  br i1 %9, label %37, label %10

10:                                               ; preds = %6
  %11 = load ptr, ptr getelementptr inbounds nuw (i8, ptr @_glfw, i64 142184), align 8, !tbaa !94
  %12 = load ptr, ptr getelementptr inbounds nuw (i8, ptr @_glfw, i64 137840), align 8, !tbaa !95
  %13 = load i64, ptr getelementptr inbounds nuw (i8, ptr @_glfw, i64 137856), align 8, !tbaa !96
  %14 = tail call ptr %11(ptr noundef %12, i64 noundef %13) #9
  %15 = load ptr, ptr getelementptr inbounds nuw (i8, ptr @_glfw, i64 142160), align 8, !tbaa !127
  %16 = load ptr, ptr getelementptr inbounds nuw (i8, ptr @_glfw, i64 137840), align 8, !tbaa !95
  %17 = getelementptr inbounds nuw i8, ptr %0, i64 296
  %18 = load i64, ptr %17, align 8, !tbaa !133
  %19 = tail call ptr %15(ptr noundef %16, ptr noundef %14, i64 noundef %18) #9
  %20 = load ptr, ptr getelementptr inbounds nuw (i8, ptr @_glfw, i64 142216), align 8, !tbaa !173
  %21 = load ptr, ptr getelementptr inbounds nuw (i8, ptr @_glfw, i64 137840), align 8, !tbaa !95
  %22 = load i64, ptr %17, align 8, !tbaa !133
  %23 = getelementptr inbounds nuw i8, ptr %19, i64 8
  %24 = load i32, ptr %23, align 8, !tbaa !134
  %25 = getelementptr inbounds nuw i8, ptr %19, i64 12
  %26 = load i32, ptr %25, align 4, !tbaa !138
  %27 = load i64, ptr %7, align 8, !tbaa !171
  %28 = getelementptr inbounds nuw i8, ptr %19, i64 32
  %29 = load i16, ptr %28, align 8, !tbaa !128
  %30 = getelementptr inbounds nuw i8, ptr %19, i64 40
  %31 = load ptr, ptr %30, align 8, !tbaa !174
  %32 = getelementptr inbounds nuw i8, ptr %19, i64 36
  %33 = load i32, ptr %32, align 4, !tbaa !175
  %34 = tail call i32 %20(ptr noundef %21, ptr noundef %14, i64 noundef %22, i64 noundef 0, i32 noundef %24, i32 noundef %26, i64 noundef %27, i16 noundef zeroext %29, ptr noundef %31, i32 noundef %33) #9
  %35 = load ptr, ptr getelementptr inbounds nuw (i8, ptr @_glfw, i64 142112), align 8, !tbaa !142
  tail call void %35(ptr noundef %19) #9
  %36 = load ptr, ptr getelementptr inbounds nuw (i8, ptr @_glfw, i64 142136), align 8, !tbaa !106
  tail call void %36(ptr noundef %14) #9
  store i64 0, ptr %7, align 8, !tbaa !171
  br label %37

37:                                               ; preds = %6, %10, %1
  ret void
}